; ModuleID = '58/1003.c'
source_filename = "58/1003.c"
target datalayout = "e-m:e-p270:32:32-p271:32:32-p272:64:64-i64:64-f80:128-n8:16:32:64-S128"
target triple = "x86_64-pc-linux-gnu"

@.str = private unnamed_addr constant [4 x i8] c"%d\0A\00", align 1

; Function Attrs: noinline nounwind uwtable
define dso_local void @main() #0 {
  %1 = alloca i32, align 4
  %2 = alloca i32, align 4
  %3 = alloca i32, align 4
  %4 = alloca i32, align 4
  %5 = alloca i32, align 4
  %6 = alloca i8**, align 8
  %7 = call i32 (i8*, ...) @__isoc99_scanf(i8* getelementptr inbounds ([4 x i8], [4 x i8]* @.str, i64 0, i64 0), i32* %1)
  %8 = load i32, i32* %1, align 4
  %9 = sext i32 %8 to i64
  %10 = mul i64 %9, 8
  %11 = call noalias i8* @malloc(i64 %10) #4
  %12 = bitcast i8* %11 to i8**
  store i8** %12, i8*** %6, align 8
  store i32 0, i32* %2, align 4
  br label %13

13:                                               ; preds = %23, %0
  %14 = load i32, i32* %2, align 4
  %15 = load i32, i32* %1, align 4
  %16 = icmp slt i32 %14, %15
  br i1 %16, label %17, label %26

17:                                               ; preds = %13
  %18 = call noalias i8* @malloc(i64 80) #4
  %19 = load i8**, i8*** %6, align 8
  %20 = load i32, i32* %2, align 4
  %21 = sext i32 %20 to i64
  %22 = getelementptr inbounds i8*, i8** %19, i64 %21
  store i8* %18, i8** %22, align 8
  br label %23

23:                                               ; preds = %17
  %24 = load i32, i32* %2, align 4
  %25 = add nsw i32 %24, 1
  store i32 %25, i32* %2, align 4
  br label %13

26:                                               ; preds = %13
  store i32 0, i32* %2, align 4
  br label %27

27:                                               ; preds = %38, %26
  %28 = load i32, i32* %2, align 4
  %29 = load i32, i32* %1, align 4
  %30 = icmp slt i32 %28, %29
  br i1 %30, label %31, label %41

31:                                               ; preds = %27
  %32 = load i8**, i8*** %6, align 8
  %33 = load i32, i32* %2, align 4
  %34 = sext i32 %33 to i64
  %35 = getelementptr inbounds i8*, i8** %32, i64 %34
  %36 = load i8*, i8** %35, align 8
  %37 = call i32 (i8*, ...) bitcast (i32 (...)* @gets to i32 (i8*, ...)*)(i8* %36)
  br label %38

38:                                               ; preds = %31
  %39 = load i32, i32* %2, align 4
  %40 = add nsw i32 %39, 1
  store i32 %40, i32* %2, align 4
  br label %27

41:                                               ; preds = %27
  store i32 0, i32* %2, align 4
  br label %42

42:                                               ; preds = %198, %41
  %43 = load i32, i32* %2, align 4
  %44 = load i32, i32* %1, align 4
  %45 = icmp slt i32 %43, %44
  br i1 %45, label %46, label %201

46:                                               ; preds = %42
  %47 = load i8**, i8*** %6, align 8
  %48 = load i32, i32* %2, align 4
  %49 = sext i32 %48 to i64
  %50 = getelementptr inbounds i8*, i8** %47, i64 %49
  %51 = load i8*, i8** %50, align 8
  %52 = load i8, i8* %51, align 1
  %53 = sext i8 %52 to i32
  %54 = icmp sge i32 %53, 97
  br i1 %54, label %55, label %64

55:                                               ; preds = %46
  %56 = load i8**, i8*** %6, align 8
  %57 = load i32, i32* %2, align 4
  %58 = sext i32 %57 to i64
  %59 = getelementptr inbounds i8*, i8** %56, i64 %58
  %60 = load i8*, i8** %59, align 8
  %61 = load i8, i8* %60, align 1
  %62 = sext i8 %61 to i32
  %63 = icmp sle i32 %62, 122
  br i1 %63, label %91, label %64

64:                                               ; preds = %55, %46
  %65 = load i8**, i8*** %6, align 8
  %66 = load i32, i32* %2, align 4
  %67 = sext i32 %66 to i64
  %68 = getelementptr inbounds i8*, i8** %65, i64 %67
  %69 = load i8*, i8** %68, align 8
  %70 = load i8, i8* %69, align 1
  %71 = sext i8 %70 to i32
  %72 = icmp sge i32 %71, 65
  br i1 %72, label %73, label %82

73:                                               ; preds = %64
  %74 = load i8**, i8*** %6, align 8
  %75 = load i32, i32* %2, align 4
  %76 = sext i32 %75 to i64
  %77 = getelementptr inbounds i8*, i8** %74, i64 %76
  %78 = load i8*, i8** %77, align 8
  %79 = load i8, i8* %78, align 1
  %80 = sext i8 %79 to i32
  %81 = icmp sle i32 %80, 90
  br i1 %81, label %91, label %82

82:                                               ; preds = %73, %64
  %83 = load i8**, i8*** %6, align 8
  %84 = load i32, i32* %2, align 4
  %85 = sext i32 %84 to i64
  %86 = getelementptr inbounds i8*, i8** %83, i64 %85
  %87 = load i8*, i8** %86, align 8
  %88 = load i8, i8* %87, align 1
  %89 = sext i8 %88 to i32
  %90 = icmp eq i32 %89, 95
  br i1 %90, label %91, label %194

91:                                               ; preds = %82, %73, %55
  %92 = load i8**, i8*** %6, align 8
  %93 = load i32, i32* %2, align 4
  %94 = sext i32 %93 to i64
  %95 = getelementptr inbounds i8*, i8** %92, i64 %94
  %96 = load i8*, i8** %95, align 8
  %97 = call i64 @strlen(i8* %96) #5
  %98 = trunc i64 %97 to i32
  store i32 %98, i32* %5, align 4
  store i32 0, i32* %3, align 4
  br label %99

99:                                               ; preds = %190, %91
  %100 = load i32, i32* %3, align 4
  %101 = load i32, i32* %5, align 4
  %102 = icmp slt i32 %100, %101
  br i1 %102, label %103, label %193

103:                                              ; preds = %99
  %104 = load i8**, i8*** %6, align 8
  %105 = load i32, i32* %2, align 4
  %106 = sext i32 %105 to i64
  %107 = getelementptr inbounds i8*, i8** %104, i64 %106
  %108 = load i8*, i8** %107, align 8
  %109 = load i32, i32* %3, align 4
  %110 = sext i32 %109 to i64
  %111 = getelementptr inbounds i8, i8* %108, i64 %110
  %112 = load i8, i8* %111, align 1
  %113 = sext i8 %112 to i32
  %114 = icmp sge i32 %113, 97
  br i1 %114, label %115, label %127

115:                                              ; preds = %103
  %116 = load i8**, i8*** %6, align 8
  %117 = load i32, i32* %2, align 4
  %118 = sext i32 %117 to i64
  %119 = getelementptr inbounds i8*, i8** %116, i64 %118
  %120 = load i8*, i8** %119, align 8
  %121 = load i32, i32* %3, align 4
  %122 = sext i32 %121 to i64
  %123 = getelementptr inbounds i8, i8* %120, i64 %122
  %124 = load i8, i8* %123, align 1
  %125 = sext i8 %124 to i32
  %126 = icmp sle i32 %125, 122
  br i1 %126, label %187, label %127

127:                                              ; preds = %115, %103
  %128 = load i8**, i8*** %6, align 8
  %129 = load i32, i32* %2, align 4
  %130 = sext i32 %129 to i64
  %131 = getelementptr inbounds i8*, i8** %128, i64 %130
  %132 = load i8*, i8** %131, align 8
  %133 = load i32, i32* %3, align 4
  %134 = sext i32 %133 to i64
  %135 = getelementptr inbounds i8, i8* %132, i64 %134
  %136 = load i8, i8* %135, align 1
  %137 = sext i8 %136 to i32
  %138 = icmp sge i32 %137, 65
  br i1 %138, label %139, label %151

139:                                              ; preds = %127
  %140 = load i8**, i8*** %6, align 8
  %141 = load i32, i32* %2, align 4
  %142 = sext i32 %141 to i64
  %143 = getelementptr inbounds i8*, i8** %140, i64 %142
  %144 = load i8*, i8** %143, align 8
  %145 = load i32, i32* %3, align 4
  %146 = sext i32 %145 to i64
  %147 = getelementptr inbounds i8, i8* %144, i64 %146
  %148 = load i8, i8* %147, align 1
  %149 = sext i8 %148 to i32
  %150 = icmp sle i32 %149, 90
  br i1 %150, label %187, label %151

151:                                              ; preds = %139, %127
  %152 = load i8**, i8*** %6, align 8
  %153 = load i32, i32* %2, align 4
  %154 = sext i32 %153 to i64
  %155 = getelementptr inbounds i8*, i8** %152, i64 %154
  %156 = load i8*, i8** %155, align 8
  %157 = load i32, i32* %3, align 4
  %158 = sext i32 %157 to i64
  %159 = getelementptr inbounds i8, i8* %156, i64 %158
  %160 = load i8, i8* %159, align 1
  %161 = sext i8 %160 to i32
  %162 = icmp eq i32 %161, 95
  br i1 %162, label %187, label %163

163:                                              ; preds = %151
  %164 = load i8**, i8*** %6, align 8
  %165 = load i32, i32* %2, align 4
  %166 = sext i32 %165 to i64
  %167 = getelementptr inbounds i8*, i8** %164, i64 %166
  %168 = load i8*, i8** %167, align 8
  %169 = load i32, i32* %3, align 4
  %170 = sext i32 %169 to i64
  %171 = getelementptr inbounds i8, i8* %168, i64 %170
  %172 = load i8, i8* %171, align 1
  %173 = sext i8 %172 to i32
  %174 = icmp sge i32 %173, 48
  br i1 %174, label %175, label %188

175:                                              ; preds = %163
  %176 = load i8**, i8*** %6, align 8
  %177 = load i32, i32* %2, align 4
  %178 = sext i32 %177 to i64
  %179 = getelementptr inbounds i8*, i8** %176, i64 %178
  %180 = load i8*, i8** %179, align 8
  %181 = load i32, i32* %3, align 4
  %182 = sext i32 %181 to i64
  %183 = getelementptr inbounds i8, i8* %180, i64 %182
  %184 = load i8, i8* %183, align 1
  %185 = sext i8 %184 to i32
  %186 = icmp sle i32 %185, 57
  br i1 %186, label %187, label %188

187:                                              ; preds = %175, %151, %139, %115
  store i32 1, i32* %4, align 4
  br label %189

188:                                              ; preds = %175, %163
  store i32 0, i32* %4, align 4
  br label %193

189:                                              ; preds = %187
  br label %190

190:                                              ; preds = %189
  %191 = load i32, i32* %3, align 4
  %192 = add nsw i32 %191, 1
  store i32 %192, i32* %3, align 4
  br label %99

193:                                              ; preds = %188, %99
  br label %195

194:                                              ; preds = %82
  store i32 0, i32* %4, align 4
  br label %195

195:                                              ; preds = %194, %193
  %196 = load i32, i32* %4, align 4
  %197 = call i32 (i8*, ...) @printf(i8* getelementptr inbounds ([4 x i8], [4 x i8]* @.str, i64 0, i64 0), i32 %196)
  br label %198

198:                                              ; preds = %195
  %199 = load i32, i32* %2, align 4
  %200 = add nsw i32 %199, 1
  store i32 %200, i32* %2, align 4
  br label %42

201:                                              ; preds = %42
  ret void
}

declare dso_local i32 @__isoc99_scanf(i8*, ...) #1

; Function Attrs: nounwind
declare dso_local noalias i8* @malloc(i64) #2

declare dso_local i32 @gets(...) #1

; Function Attrs: nounwind readonly
declare dso_local i64 @strlen(i8*) #3

declare dso_local i32 @printf(i8*, ...) #1


!llvm.module.flags = !{!0}
!llvm.ident = !{!1}

!0 = !{i32 1, !"wchar_size", i32 4}
!1 = !{!"clang version 10.0.0-4ubuntu1 "}
